target datalayout = "e-m:e-p270:32:32-p271:32:32-p272:64:64-i64:64-i128:128-f80:128-n8:16:32:64-S128"
target triple = "x86_64-pc-linux-gnu"

%struct._packet_info = type { ptr, ptr, i32, i32, %struct.nstime_t, %struct.nstime_t, %struct.nstime_t, i8, ptr, ptr, ptr, ptr, %struct._address, %struct._address, %struct._address, %struct._address, %struct._address, %struct._address, i32, ptr, i8, [3 x i8], %struct.anon.1, i32, i32, i32, i32, ptr, i8, ptr, ptr, i16, i16, i32, i32, i16, i32, i32, ptr, ptr, ptr, i8, i8, i16, i16, i16, i32, i16, i16, ptr, ptr, ptr, ptr, ptr, i32, i32 }
%struct.nstime_t = type { i64, i32 }
%struct._address = type { i32, i32, ptr, ptr }
%struct.anon.1 = type { i8, [3 x i8] }

@hf_uds_compression_method = internal global i32 0, align 4
@hf_uds_encrypting_method = internal global i32 0, align 4
@hf_uds_memory_size_length = internal global i32 0, align 4
@hf_uds_memory_address_length = internal global i32 0, align 4
@hf_uds_memory_address = internal global i32 0, align 4
@hf_uds_memory_size = internal global i32 0, align 4
@.str.840 = private unnamed_addr constant [24 x i8] c"   0x%lx bytes at 0x%lx\00", align 1
@.str.841 = private unnamed_addr constant [38 x i8] c"   (Compression:0x%x Encrypting:0x%x)\00", align 1

; Function Attrs: null_pointer_is_valid sspstrong uwtable
define internal i32 @dissect_uds_memory_addr_size(ptr noundef %0, ptr noundef %1, ptr noundef %2, i32 noundef %3, i1 noundef zeroext %4) #0 {
  %6 = alloca ptr, align 8
  %7 = alloca ptr, align 8
  %8 = alloca ptr, align 8
  %9 = alloca i32, align 4
  %10 = alloca i8, align 1
  %11 = alloca i32, align 4
  %12 = alloca i32, align 4
  %13 = alloca i32, align 4
  %14 = alloca i32, align 4
  %15 = alloca i64, align 8
  %16 = alloca i64, align 8
  store ptr %0, ptr %6, align 8
  store ptr %1, ptr %7, align 8
  store ptr %2, ptr %8, align 8
  store i32 %3, ptr %9, align 4
  %17 = zext i1 %4 to i8
  store i8 %17, ptr %10, align 1
  call void @llvm.lifetime.start.p0(i64 4, ptr %11) #12
  call void @llvm.lifetime.start.p0(i64 4, ptr %12) #12
  %18 = load i8, ptr %10, align 1, !range !11, !noundef !12
  %19 = trunc i8 %18 to i1
  br i1 %19, label %20, label %33

20:                                               ; preds = %5
  %21 = load ptr, ptr %8, align 8
  %22 = load i32, ptr @hf_uds_compression_method, align 4
  %23 = load ptr, ptr %6, align 8
  %24 = load i32, ptr %9, align 4
  %25 = call ptr @proto_tree_add_item_ret_uint(ptr noundef %21, i32 noundef %22, ptr noundef %23, i32 noundef %24, i32 noundef 1, i32 noundef 0, ptr noundef %11)
  %26 = load ptr, ptr %8, align 8
  %27 = load i32, ptr @hf_uds_encrypting_method, align 4
  %28 = load ptr, ptr %6, align 8
  %29 = load i32, ptr %9, align 4
  %30 = call ptr @proto_tree_add_item_ret_uint(ptr noundef %26, i32 noundef %27, ptr noundef %28, i32 noundef %29, i32 noundef 1, i32 noundef 0, ptr noundef %12)
  %31 = load i32, ptr %9, align 4
  %32 = add i32 %31, 1
  store i32 %32, ptr %9, align 4
  br label %33

33:                                               ; preds = %20, %5
  call void @llvm.lifetime.start.p0(i64 4, ptr %13) #12
  call void @llvm.lifetime.start.p0(i64 4, ptr %14) #12
  %34 = load ptr, ptr %8, align 8
  %35 = load i32, ptr @hf_uds_memory_size_length, align 4
  %36 = load ptr, ptr %6, align 8
  %37 = load i32, ptr %9, align 4
  %38 = call ptr @proto_tree_add_item_ret_uint(ptr noundef %34, i32 noundef %35, ptr noundef %36, i32 noundef %37, i32 noundef 1, i32 noundef 0, ptr noundef %13)
  %39 = load ptr, ptr %8, align 8
  %40 = load i32, ptr @hf_uds_memory_address_length, align 4
  %41 = load ptr, ptr %6, align 8
  %42 = load i32, ptr %9, align 4
  %43 = call ptr @proto_tree_add_item_ret_uint(ptr noundef %39, i32 noundef %40, ptr noundef %41, i32 noundef %42, i32 noundef 1, i32 noundef 0, ptr noundef %14)
  %44 = load i32, ptr %9, align 4
  %45 = add i32 %44, 1
  store i32 %45, ptr %9, align 4
  call void @llvm.lifetime.start.p0(i64 8, ptr %15) #12
  %46 = load ptr, ptr %8, align 8
  %47 = load i32, ptr @hf_uds_memory_address, align 4
  %48 = load ptr, ptr %6, align 8
  %49 = load i32, ptr %9, align 4
  %50 = load i32, ptr %14, align 4
  %51 = call ptr @proto_tree_add_item_ret_uint64(ptr noundef %46, i32 noundef %47, ptr noundef %48, i32 noundef %49, i32 noundef %50, i32 noundef 0, ptr noundef %15)
  %52 = load i32, ptr %14, align 4
  %53 = load i32, ptr %9, align 4
  %54 = add i32 %53, %52
  store i32 %54, ptr %9, align 4
  call void @llvm.lifetime.start.p0(i64 8, ptr %16) #12
  %55 = load ptr, ptr %8, align 8
  %56 = load i32, ptr @hf_uds_memory_size, align 4
  %57 = load ptr, ptr %6, align 8
  %58 = load i32, ptr %9, align 4
  %59 = load i32, ptr %13, align 4
  %60 = call ptr @proto_tree_add_item_ret_uint64(ptr noundef %55, i32 noundef %56, ptr noundef %57, i32 noundef %58, i32 noundef %59, i32 noundef 0, ptr noundef %16)
  %61 = load i32, ptr %13, align 4
  %62 = load i32, ptr %9, align 4
  %63 = add i32 %62, %61
  store i32 %63, ptr %9, align 4
  %64 = load ptr, ptr %7, align 8
  %65 = getelementptr inbounds nuw %struct._packet_info, ptr %64, i32 0, i32 1
  %66 = load ptr, ptr %65, align 8
  %67 = load i64, ptr %16, align 8
  %68 = load i64, ptr %15, align 8
  call void (ptr, i32, ptr, ...) @col_append_fstr(ptr noundef %66, i32 noundef 25, ptr noundef @.str.840, i64 noundef %67, i64 noundef %68)
  %69 = load i8, ptr %10, align 1, !range !11, !noundef !12
  %70 = trunc i8 %69 to i1
  br i1 %70, label %71, label %77

71:                                               ; preds = %33
  %72 = load ptr, ptr %7, align 8
  %73 = getelementptr inbounds nuw %struct._packet_info, ptr %72, i32 0, i32 1
  %74 = load ptr, ptr %73, align 8
  %75 = load i32, ptr %11, align 4
  %76 = load i32, ptr %12, align 4
  call void (ptr, i32, ptr, ...) @col_append_fstr(ptr noundef %74, i32 noundef 25, ptr noundef @.str.841, i32 noundef %75, i32 noundef %76)
  br label %77

77:                                               ; preds = %71, %33
  %78 = load i32, ptr %9, align 4
  call void @llvm.lifetime.end.p0(i64 8, ptr %16) #12
  call void @llvm.lifetime.end.p0(i64 8, ptr %15) #12
  call void @llvm.lifetime.end.p0(i64 4, ptr %14) #12
  call void @llvm.lifetime.end.p0(i64 4, ptr %13) #12
  call void @llvm.lifetime.end.p0(i64 4, ptr %12) #12
  call void @llvm.lifetime.end.p0(i64 4, ptr %11) #12
  ret i32 %78
}