; Function Attrs: null_pointer_is_valid sspstrong uwtable
define internal fastcc i32 @dissect_uds_memory_addr_size(ptr noundef %0, ptr noundef readonly captures(none) %1, ptr noundef %2, i1 noundef zeroext %3) unnamed_addr #0 {
  %5 = alloca i32, align 4
  %6 = alloca i32, align 4
  %7 = alloca i32, align 4
  %8 = alloca i32, align 4
  %9 = alloca i64, align 8
  %10 = alloca i64, align 8
  call void @llvm.lifetime.start.p0(i64 4, ptr nonnull %5) #14
  call void @llvm.lifetime.start.p0(i64 4, ptr nonnull %6) #14
  br i1 %3, label %11, label %16

11:                                               ; preds = %4
  %12 = load i32, ptr @hf_uds_compression_method, align 4
  %13 = call ptr @proto_tree_add_item_ret_uint(ptr noundef %2, i32 noundef %12, ptr noundef %0, i32 noundef 1, i32 noundef 1, i32 noundef 0, ptr noundef nonnull %5)
  %14 = load i32, ptr @hf_uds_encrypting_method, align 4
  %15 = call ptr @proto_tree_add_item_ret_uint(ptr noundef %2, i32 noundef %14, ptr noundef %0, i32 noundef 1, i32 noundef 1, i32 noundef 0, ptr noundef nonnull %6)
  br label %16

16:                                               ; preds = %11, %4
  %.0 = phi i32 [ 2, %11 ], [ 1, %4 ]
  call void @llvm.lifetime.start.p0(i64 4, ptr nonnull %7) #14
  call void @llvm.lifetime.start.p0(i64 4, ptr nonnull %8) #14
  %17 = load i32, ptr @hf_uds_memory_size_length, align 4
  %18 = call ptr @proto_tree_add_item_ret_uint(ptr noundef %2, i32 noundef %17, ptr noundef %0, i32 noundef %.0, i32 noundef 1, i32 noundef 0, ptr noundef nonnull %7)
  %19 = load i32, ptr @hf_uds_memory_address_length, align 4
  %20 = call ptr @proto_tree_add_item_ret_uint(ptr noundef %2, i32 noundef %19, ptr noundef %0, i32 noundef %.0, i32 noundef 1, i32 noundef 0, ptr noundef nonnull %8)
  %21 = add nuw nsw i32 %.0, 1
  call void @llvm.lifetime.start.p0(i64 8, ptr nonnull %9) #14
  %22 = load i32, ptr @hf_uds_memory_address, align 4
  %23 = load i32, ptr %8, align 4
  %24 = call ptr @proto_tree_add_item_ret_uint64(ptr noundef %2, i32 noundef %22, ptr noundef %0, i32 noundef %21, i32 noundef %23, i32 noundef 0, ptr noundef nonnull %9)
  %25 = load i32, ptr %8, align 4
  %26 = add i32 %25, %21
  call void @llvm.lifetime.start.p0(i64 8, ptr nonnull %10) #14
  %27 = load i32, ptr @hf_uds_memory_size, align 4
  %28 = load i32, ptr %7, align 4
  %29 = call ptr @proto_tree_add_item_ret_uint64(ptr noundef %2, i32 noundef %27, ptr noundef %0, i32 noundef %26, i32 noundef %28, i32 noundef 0, ptr noundef nonnull %10)
  %30 = load i32, ptr %7, align 4
  %31 = getelementptr inbounds nuw i8, ptr %1, i64 8
  %32 = load ptr, ptr %31, align 8
  %33 = load i64, ptr %10, align 8
  %34 = load i64, ptr %9, align 8
  call void (ptr, i32, ptr, ...) @col_append_fstr(ptr noundef %32, i32 noundef 25, ptr noundef nonnull @.str.840, i64 noundef %33, i64 noundef %34)
  br i1 %3, label %35, label %39

35:                                               ; preds = %16
  %36 = load ptr, ptr %31, align 8
  %37 = load i32, ptr %5, align 4
  %38 = load i32, ptr %6, align 4
  call void (ptr, i32, ptr, ...) @col_append_fstr(ptr noundef %36, i32 noundef 25, ptr noundef nonnull @.str.841, i32 noundef %37, i32 noundef %38)
  br label %39

39:                                               ; preds = %35, %16
  %40 = add i32 %30, %26
  call void @llvm.lifetime.end.p0(i64 8, ptr nonnull %10) #14
  call void @llvm.lifetime.end.p0(i64 8, ptr nonnull %9) #14
  call void @llvm.lifetime.end.p0(i64 4, ptr nonnull %8) #14
  call void @llvm.lifetime.end.p0(i64 4, ptr nonnull %7) #14
  call void @llvm.lifetime.end.p0(i64 4, ptr nonnull %6) #14
  call void @llvm.lifetime.end.p0(i64 4, ptr nonnull %5) #14
  ret i32 %40
}